ccopy_reg
_reconstructor
p0
(cmatplotlib.figure
Figure
p1
c__builtin__
object
p2
Ntp3
Rp4
(dp5
S'_label'
p6
V
p7
sS'_visible'
p8
I01
sS'figure'
p9
NsS'stale_callback'
p10
NsS'_rasterized'
p11
NsS'texts'
p12
(lp13
sS'_hold'
p14
I01
sS'artists'
p15
(lp16
sS'_path_effects'
p17
(lp18
sS'frameon'
p19
I01
sS'_clipon'
p20
I01
sV__mpl_version__
p21
S'1.5.1'
p22
sS'_clippath'
p23
NsS'_contains'
p24
NsS'_tight_parameters'
p25
(dp26
sS'_mouseover'
p27
I00
sS'_animated'
p28
I00
sS'_propobservers'
p29
(dp30
sS'eventson'
p31
I00
sS'_picker'
p32
NsS'_remove_method'
p33
NsS'figurePatch'
p34
g0
(cmatplotlib.patches
Rectangle
p35
g2
Ntp36
Rp37
(dp38
g6
g7
sS'_width'
p39
F1.0
sS'_fill'
p40
I01
sg9
g4
sg8
I01
sg10
NsS'_agg_filter'
p41
Nsg17
g18
sS'_gid'
p42
Nsg20
I01
sS'_combined_transform'
p43
g0
(cmatplotlib.transforms
IdentityTransform
p44
g2
Ntp45
Rp46
(dp47
S'_invalid'
p48
I1
sS'_inverted'
p49
NsS'_shorthand_name'
p50
g7
sS'_parents'
p51
(dp52
sbsS'_edgecolor'
p53
(F1.0
F1.0
F1.0
F1.0
tp54
sg23
NsS'_y'
p55
F0.0
sS'_x'
p56
F0.0
sS'_sketch'
p57
Nsg24
Nsg11
Nsg27
I00
sg28
I00
sg29
(dp58
sS'_rect_transform'
p59
g0
(g44
g2
Ntp60
Rp61
(dp62
g48
I1
sg49
Nsg50
g7
sg51
(dp63
sbsg31
I00
sS'_hatch'
p64
NsS'_stale'
p65
I01
sS'_linewidth'
p66
F0.0
sS'clipbox'
p67
NsS'_height'
p68
F1.0
sg32
NsS'_antialiased'
p69
I00
sS'_original_facecolor'
p70
V0.75
p71
sS'_snap'
p72
NsS'_facecolor'
p73
(F0.75
F0.75
F0.75
F1.0
tp74
sS'_joinstyle'
p75
Vmiter
p76
sS'_linestyle'
p77
Vsolid
p78
sS'_original_edgecolor'
p79
Vw
p80
sS'_oid'
p81
I0
sS'_transformSet'
p82
I01
sS'_angle'
p83
F0.0
sS'_alpha'
p84
NsS'_transform'
p85
g0
(cmatplotlib.transforms
BboxTransformTo
p86
g2
Ntp87
Rp88
(dp89
g48
I1
sS'_mtx'
p90
Nsg49
NsS'_boxout'
p91
g0
(cmatplotlib.transforms
TransformedBbox
p92
g2
Ntp93
Rp94
(dp95
g48
I0
sS'_bbox'
p96
g0
(cmatplotlib.transforms
Bbox
p97
g2
Ntp98
Rp99
(dp100
g48
I0
sS'_minpos'
p101
cnumpy.core.multiarray
_reconstruct
p102
(cnumpy
ndarray
p103
(I0
tp104
S'b'
p105
tp106
Rp107
(I1
(I2
tp108
cnumpy
dtype
p109
(S'f8'
p110
I0
I1
tp111
Rp112
(I3
S'<'
p113
NNNI-1
I-1
I0
tp114
bI00
S'H\xaf\xbc\x9a\xf2\xd7z>H\xaf\xbc\x9a\xf2\xd7z>'
p115
tp116
bsg51
(dp117
I139902087201680
g94
ssS'_points_orig'
p118
g102
(g103
(I0
tp119
g105
tp120
Rp121
(I1
(I2
I2
tp122
g112
I00
S'\x00\x00\x00\x00\x00\x00\x00\x00\x00\x00\x00\x00\x00\x00\x00\x00\x00\x00\x00\x00\x00\x00 @\x00\x00\x00\x00\x00\x00\x18@'
p123
tp124
bsS'_points'
p125
g102
(g103
(I0
tp126
g105
tp127
Rp128
(I1
(I2
I2
tp129
g112
I00
S'\x00\x00\x00\x00\x00\x00\x00\x00\x00\x00\x00\x00\x00\x00\x00\x00\x00\x00\x00\x00\x00\x00 @\x00\x00\x00\x00\x00\x00\x18@'
p130
tp131
bsS'_ignore'
p132
I01
sg50
g7
sbsg85
g0
(cmatplotlib.transforms
Affine2D
p133
g2
Ntp134
Rp135
(dp136
g48
I0
sg49
Nsg90
g102
(g103
(I0
tp137
g105
tp138
Rp139
(I1
(I3
I3
tp140
g112
I00
S'\x00\x00\x00\x00\x00\x00T@\x00\x00\x00\x00\x00\x00\x00\x00\x00\x00\x00\x00\x00\x00\x00\x00\x00\x00\x00\x00\x00\x00\x00\x00\x00\x00\x00\x00\x00\x00T@\x00\x00\x00\x00\x00\x00\x00\x00\x00\x00\x00\x00\x00\x00\x00\x00\x00\x00\x00\x00\x00\x00\x00\x00\x00\x00\x00\x00\x00\x00\xf0?'
p141
tp142
bsg50
g7
sg51
(dp143
I139902087201680
g94
ssbsg125
g102
(g103
(I0
tp144
g105
tp145
Rp146
(I1
(I2
I2
tp147
g112
I00
S'\x00\x00\x00\x00\x00\x00\x00\x00\x00\x00\x00\x00\x00\x00\x00\x00\x00\x00\x00\x00\x00\x00\x84@\x00\x00\x00\x00\x00\x00~@'
p148
tp149
bsg51
(dp150
I139902088980112
g88
ssg50
g7
sbsg51
(dp151
sg50
g7
sbsS'_capstyle'
p152
Vbutt
p153
sS'_url'
p154
NsS'_axes'
p155
Nsg33
Nsbsg41
Nsg67
NsV_restore_to_pylab
p156
I01
sS'images'
p157
(lp158
sS'_suptitle'
p159
NsS'dpi_scale_trans'
p160
g135
sS'number'
p161
I26
sS'callbacks'
p162
g0
(cmatplotlib.cbook
CallbackRegistry
p163
g2
Ntp164
Rp165
sg72
NsS'_tight'
p166
I00
sg65
I01
sS'bbox'
p167
g94
sg57
Nsg81
I0
sS'patches'
p168
(lp169
sS'legends'
p170
(lp171
sS'suppressComposite'
p172
Nsg82
I00
sg84
NsS'_axstack'
p173
g0
(cmatplotlib.figure
AxesStack
p174
g2
Ntp175
Rp176
(dp177
S'_default'
p178
NsS'_elements'
p179
(lp180
sS'_ind'
p181
I0
sS'_pos'
p182
I-1
sbsg85
NsS'lines'
p183
(lp184
sS'patch'
p185
g37
sS'subplotpars'
p186
g0
(cmatplotlib.figure
SubplotParams
p187
g2
Ntp188
Rp189
(dp190
S'right'
p191
F0.9
sS'bottom'
p192
F0.1
sS'top'
p193
F0.9
sS'wspace'
p194
F0.2
sS'validate'
p195
I01
sS'hspace'
p196
F0.2
sS'left'
p197
F0.125
sbsg42
Nsg154
NsS'bbox_inches'
p198
g99
sS'transFigure'
p199
g88
sS'_dpi'
p200
F80.0
sb.